; Function Attrs: mustprogress nounwind uwtable
define noundef i32 @casadi_register_linsol_ldl(ptr nocapture noundef writeonly %0) #3 {
  store ptr @_ZN6casadi9LinsolLdl7creatorERKNSt7__cxx1112basic_stringIcSt11char_traitsIcESaIcEEERKNS_8SparsityE, ptr %0, align 8
  %2 = getelementptr inbounds i8, ptr %0, i64 8
  store ptr @.str, ptr %2, align 8
  %3 = tail call noundef ptr @_ZNKSt7__cxx1112basic_stringIcSt11char_traitsIcESaIcEE5c_strEv(ptr noundef nonnull align 8 dereferenceable(32) @_ZN6casadi9LinsolLdl8meta_docB5cxx11E) #20
  %4 = getelementptr inbounds i8, ptr %0, i64 16
  store ptr %3, ptr %4, align 8
  %5 = getelementptr inbounds i8, ptr %0, i64 24
  store i32 31, ptr %5, align 8
  %6 = getelementptr inbounds i8, ptr %0, i64 32
  store ptr @_ZN6casadi9LinsolLdl8options_E, ptr %6, align 8
  %7 = getelementptr inbounds i8, ptr %0, i64 40
  store ptr @_ZN6casadi9LinsolLdl11deserializeERNS_19DeserializingStreamE, ptr %7, align 8
  ret i32 0
}